target datalayout = "e-m:e-p270:32:32-p271:32:32-p272:64:64-i64:64-i128:128-f80:128-n8:16:32:64-S128"
target triple = "x86_64-pc-linux-gnu"

%struct.lua_TValue = type { %union.Value, [1 x i32], i32 }
%union.Value = type { ptr }
%struct.lua_State = type { i8, i8, i8, i8, i8, i8, i8, ptr, ptr, ptr, ptr, ptr, ptr, ptr, ptr, i32, i32, i16, i16, i32, ptr, ptr, ptr, ptr, ptr }
%struct.global_State = type { %struct.stringtable, ptr, ptr, i8, i8, ptr, ptr, ptr, i64, i64, i32, i32, i32, [40 x ptr], [40 x ptr], ptr, ptr, ptr, [256 x i64], ptr, %struct.UpVal, [11 x ptr], [11 x ptr], [21 x ptr], %struct.lua_TValue, %struct.lua_TValue, i32, ptr, i64, [4 x i64], %struct.lua_Callbacks, %struct.lua_ExecutionCallbacks, [128 x ptr], [128 x ptr], [128 x ptr], %struct.GCStats }
%struct.stringtable = type { ptr, i32, i32 }
%struct.UpVal = type { i8, i8, i8, i8, ptr, %union.anon }
%union.anon = type { %struct.anon }
%struct.anon = type { ptr, ptr, ptr }
%struct.lua_Callbacks = type { ptr, ptr, ptr, ptr, ptr, ptr, ptr, ptr, ptr, ptr }
%struct.lua_ExecutionCallbacks = type { ptr, ptr, ptr, ptr, ptr, ptr, ptr }
%struct.GCStats = type { [32 x i32], i32, i32, i64, i64, i64, double, double, double }
%struct.LuaTable = type { i8, i8, i8, i8, i8, i8, i8, i8, i32, %union.anon.4, ptr, ptr, ptr, ptr }
%union.anon.4 = type { i32 }
%struct.Udata = type { i8, i8, i8, i8, i32, ptr, %union.anon.0 }
%union.anon.0 = type { %union.L_Umaxalign }
%union.L_Umaxalign = type { double }

@luaO_nilobject_ = external hidden global %struct.lua_TValue, align 8

; Function Attrs: mustprogress uwtable
define internal noundef i32 @_ZL18luauF_getmetatableP9lua_StateP10lua_TValueS2_iS2_i(ptr noundef %0, ptr noundef %1, ptr noundef %2, i32 noundef %3, ptr noundef %4, i32 noundef %5) #3 {
  %7 = alloca i32, align 4
  %8 = alloca ptr, align 8
  %9 = alloca ptr, align 8
  %10 = alloca ptr, align 8
  %11 = alloca i32, align 4
  %12 = alloca ptr, align 8
  %13 = alloca i32, align 4
  %14 = alloca ptr, align 8
  %15 = alloca ptr, align 8
  %16 = alloca ptr, align 8
  %17 = alloca ptr, align 8
  %18 = alloca i32, align 4
  %19 = alloca ptr, align 8
  store ptr %0, ptr %8, align 8, !tbaa !4
  store ptr %1, ptr %9, align 8, !tbaa !9
  store ptr %2, ptr %10, align 8, !tbaa !9
  store i32 %3, ptr %11, align 4, !tbaa !11
  store ptr %4, ptr %12, align 8, !tbaa !9
  store i32 %5, ptr %13, align 4, !tbaa !11
  %20 = load i32, ptr %13, align 4, !tbaa !11
  %21 = icmp sge i32 %20, 1
  br i1 %21, label %22, label %97

22:                                               ; preds = %6
  %23 = load i32, ptr %11, align 4, !tbaa !11
  %24 = icmp sle i32 %23, 1
  br i1 %24, label %25, label %97

25:                                               ; preds = %22
  call void @llvm.lifetime.start.p0(i64 8, ptr %14) #17
  store ptr null, ptr %14, align 8, !tbaa !57
  %26 = load ptr, ptr %10, align 8, !tbaa !9
  %27 = getelementptr inbounds nuw %struct.lua_TValue, ptr %26, i32 0, i32 2
  %28 = load i32, ptr %27, align 4, !tbaa !13
  %29 = icmp eq i32 %28, 6
  br i1 %29, label %30, label %36

30:                                               ; preds = %25
  %31 = load ptr, ptr %10, align 8, !tbaa !9
  %32 = getelementptr inbounds nuw %struct.lua_TValue, ptr %31, i32 0, i32 0
  %33 = load ptr, ptr %32, align 8, !tbaa !15
  %34 = getelementptr inbounds nuw %struct.LuaTable, ptr %33, i32 0, i32 10
  %35 = load ptr, ptr %34, align 8, !tbaa !80
  store ptr %35, ptr %14, align 8, !tbaa !57
  br label %59

36:                                               ; preds = %25
  %37 = load ptr, ptr %10, align 8, !tbaa !9
  %38 = getelementptr inbounds nuw %struct.lua_TValue, ptr %37, i32 0, i32 2
  %39 = load i32, ptr %38, align 4, !tbaa !13
  %40 = icmp eq i32 %39, 8
  br i1 %40, label %41, label %47

41:                                               ; preds = %36
  %42 = load ptr, ptr %10, align 8, !tbaa !9
  %43 = getelementptr inbounds nuw %struct.lua_TValue, ptr %42, i32 0, i32 0
  %44 = load ptr, ptr %43, align 8, !tbaa !15
  %45 = getelementptr inbounds nuw %struct.Udata, ptr %44, i32 0, i32 5
  %46 = load ptr, ptr %45, align 8, !tbaa !81
  store ptr %46, ptr %14, align 8, !tbaa !57
  br label %58

47:                                               ; preds = %36
  %48 = load ptr, ptr %8, align 8, !tbaa !4
  %49 = getelementptr inbounds nuw %struct.lua_State, ptr %48, i32 0, i32 9
  %50 = load ptr, ptr %49, align 8, !tbaa !27
  %51 = getelementptr inbounds nuw %struct.global_State, ptr %50, i32 0, i32 21
  %52 = load ptr, ptr %10, align 8, !tbaa !9
  %53 = getelementptr inbounds nuw %struct.lua_TValue, ptr %52, i32 0, i32 2
  %54 = load i32, ptr %53, align 4, !tbaa !13
  %55 = sext i32 %54 to i64
  %56 = getelementptr inbounds [11 x ptr], ptr %51, i64 0, i64 %55
  %57 = load ptr, ptr %56, align 8, !tbaa !57
  store ptr %57, ptr %14, align 8, !tbaa !57
  br label %58

58:                                               ; preds = %47, %41
  br label %59

59:                                               ; preds = %58, %30
  call void @llvm.lifetime.start.p0(i64 8, ptr %15) #17
  %60 = load ptr, ptr %14, align 8, !tbaa !57
  %61 = icmp ne ptr %60, null
  br i1 %61, label %62, label %71

62:                                               ; preds = %59
  %63 = load ptr, ptr %14, align 8, !tbaa !57
  %64 = load ptr, ptr %8, align 8, !tbaa !4
  %65 = getelementptr inbounds nuw %struct.lua_State, ptr %64, i32 0, i32 9
  %66 = load ptr, ptr %65, align 8, !tbaa !27
  %67 = getelementptr inbounds nuw %struct.global_State, ptr %66, i32 0, i32 23
  %68 = getelementptr inbounds nuw [21 x ptr], ptr %67, i64 0, i64 20
  %69 = load ptr, ptr %68, align 8, !tbaa !37
  %70 = call noundef ptr @_Z11luaH_getstrP8LuaTableP7TString(ptr noundef %63, ptr noundef %69)
  br label %72

71:                                               ; preds = %59
  br label %72

72:                                               ; preds = %71, %62
  %73 = phi ptr [ %70, %62 ], [ @luaO_nilobject_, %71 ]
  store ptr %73, ptr %15, align 8, !tbaa !9
  %74 = load ptr, ptr %15, align 8, !tbaa !9
  %75 = getelementptr inbounds nuw %struct.lua_TValue, ptr %74, i32 0, i32 2
  %76 = load i32, ptr %75, align 4, !tbaa !13
  %77 = icmp eq i32 %76, 0
  br i1 %77, label %83, label %78

78:                                               ; preds = %72
  call void @llvm.lifetime.start.p0(i64 8, ptr %16) #17
  %79 = load ptr, ptr %15, align 8, !tbaa !9
  store ptr %79, ptr %16, align 8, !tbaa !9
  call void @llvm.lifetime.start.p0(i64 8, ptr %17) #17
  %80 = load ptr, ptr %9, align 8, !tbaa !9
  store ptr %80, ptr %17, align 8, !tbaa !9
  %81 = load ptr, ptr %16, align 8, !tbaa !9
  %82 = load ptr, ptr %17, align 8, !tbaa !9
  call void @llvm.memcpy.p0.p0.i64(ptr align 8 %82, ptr align 8 %81, i64 16, i1 false), !tbaa.struct !61
  call void @llvm.lifetime.end.p0(i64 8, ptr %17) #17
  call void @llvm.lifetime.end.p0(i64 8, ptr %16) #17
  store i32 1, ptr %7, align 4
  store i32 1, ptr %18, align 4
  br label %96

83:                                               ; preds = %72
  %84 = load ptr, ptr %14, align 8, !tbaa !57
  %85 = icmp ne ptr %84, null
  br i1 %85, label %86, label %93

86:                                               ; preds = %83
  call void @llvm.lifetime.start.p0(i64 8, ptr %19) #17
  %87 = load ptr, ptr %9, align 8, !tbaa !9
  store ptr %87, ptr %19, align 8, !tbaa !9
  %88 = load ptr, ptr %14, align 8, !tbaa !57
  %89 = load ptr, ptr %19, align 8, !tbaa !9
  %90 = getelementptr inbounds nuw %struct.lua_TValue, ptr %89, i32 0, i32 0
  store ptr %88, ptr %90, align 8, !tbaa !15
  %91 = load ptr, ptr %19, align 8, !tbaa !9
  %92 = getelementptr inbounds nuw %struct.lua_TValue, ptr %91, i32 0, i32 2
  store i32 6, ptr %92, align 4, !tbaa !13
  call void @llvm.lifetime.end.p0(i64 8, ptr %19) #17
  store i32 1, ptr %7, align 4
  store i32 1, ptr %18, align 4
  br label %96

93:                                               ; preds = %83
  %94 = load ptr, ptr %9, align 8, !tbaa !9
  %95 = getelementptr inbounds nuw %struct.lua_TValue, ptr %94, i32 0, i32 2
  store i32 0, ptr %95, align 4, !tbaa !13
  store i32 1, ptr %7, align 4
  store i32 1, ptr %18, align 4
  br label %96

96:                                               ; preds = %93, %86, %78
  call void @llvm.lifetime.end.p0(i64 8, ptr %15) #17
  call void @llvm.lifetime.end.p0(i64 8, ptr %14) #17
  br label %98

97:                                               ; preds = %22, %6
  store i32 -1, ptr %7, align 4
  br label %98

98:                                               ; preds = %97, %96
  %99 = load i32, ptr %7, align 4
  ret i32 %99
}