; Function Attrs: mustprogress uwtable
define internal noundef range(i32 -1, 2) i32 @_ZL18luauF_getmetatableP9lua_StateP10lua_TValueS2_iS2_i(ptr noundef readonly captures(none) %0, ptr noundef writeonly captures(none) %1, ptr noundef readonly captures(none) %2, i32 noundef %3, ptr readnone captures(none) %4, i32 noundef %5) #8 {
  %7 = icmp sgt i32 %5, 0
  %8 = icmp slt i32 %3, 2
  %or.cond = and i1 %8, %7
  br i1 %or.cond, label %9, label %42

9:                                                ; preds = %6
  %10 = getelementptr inbounds nuw i8, ptr %2, i64 12
  %11 = load i32, ptr %10, align 4, !tbaa !4
  switch i32 %11, label %18 [
    i32 6, label %12
    i32 8, label %15
  ]

12:                                               ; preds = %9
  %13 = load ptr, ptr %2, align 8, !tbaa !9
  %14 = getelementptr inbounds nuw i8, ptr %13, i64 16
  br label %24

15:                                               ; preds = %9
  %16 = load ptr, ptr %2, align 8, !tbaa !9
  %17 = getelementptr inbounds nuw i8, ptr %16, i64 8
  br label %24

18:                                               ; preds = %9
  %19 = getelementptr inbounds nuw i8, ptr %0, i64 24
  %20 = load ptr, ptr %19, align 8, !tbaa !20
  %21 = getelementptr inbounds nuw i8, ptr %20, i64 2856
  %22 = sext i32 %11 to i64
  %23 = getelementptr inbounds [11 x ptr], ptr %21, i64 0, i64 %22
  br label %24

24:                                               ; preds = %15, %18, %12
  %.023.in = phi ptr [ %14, %12 ], [ %17, %15 ], [ %23, %18 ]
  %.023 = load ptr, ptr %.023.in, align 8, !tbaa !77
  %.not = icmp eq ptr %.023, null
  br i1 %.not, label %25, label %.thread

25:                                               ; preds = %24
  %26 = load i32, ptr getelementptr inbounds nuw (i8, ptr @luaO_nilobject_, i64 12), align 4, !tbaa !4
  %27 = icmp eq i32 %26, 0
  br i1 %27, label %40, label %36

.thread:                                          ; preds = %24
  %28 = getelementptr inbounds nuw i8, ptr %0, i64 24
  %29 = load ptr, ptr %28, align 8, !tbaa !20
  %30 = getelementptr inbounds nuw i8, ptr %29, i64 3192
  %31 = load ptr, ptr %30, align 8, !tbaa !32
  %32 = tail call noundef ptr @_Z11luaH_getstrP8LuaTableP7TString(ptr noundef nonnull %.023, ptr noundef %31)
  %33 = getelementptr inbounds nuw i8, ptr %32, i64 12
  %34 = load i32, ptr %33, align 4, !tbaa !4
  %35 = icmp eq i32 %34, 0
  br i1 %35, label %38, label %36

36:                                               ; preds = %.thread, %25
  %37 = phi ptr [ %32, %.thread ], [ @luaO_nilobject_, %25 ]
  tail call void @llvm.memcpy.p0.p0.i64(ptr noundef nonnull align 8 dereferenceable(16) %1, ptr noundef nonnull align 8 dereferenceable(16) %37, i64 16, i1 false), !tbaa.struct !56
  br label %42

38:                                               ; preds = %.thread
  store ptr %.023, ptr %1, align 8, !tbaa !9
  %39 = getelementptr inbounds nuw i8, ptr %1, i64 12
  store i32 6, ptr %39, align 4, !tbaa !4
  br label %42

40:                                               ; preds = %25
  %41 = getelementptr inbounds nuw i8, ptr %1, i64 12
  store i32 0, ptr %41, align 4, !tbaa !4
  br label %42

42:                                               ; preds = %6, %36, %38, %40
  %.1 = phi i32 [ 1, %40 ], [ 1, %38 ], [ 1, %36 ], [ -1, %6 ]
  ret i32 %.1
}